; ModuleID = '43/609.c'
source_filename = "43/609.c"
target datalayout = "e-m:e-p270:32:32-p271:32:32-p272:64:64-i64:64-f80:128-n8:16:32:64-S128"
target triple = "x86_64-pc-linux-gnu"

@.str = private unnamed_addr constant [3 x i8] c"%d\00", align 1
@.str.1 = private unnamed_addr constant [7 x i8] c"%d %d\0A\00", align 1

; Function Attrs: noinline nounwind uwtable
define dso_local i32 @main() #0 {
  %1 = alloca i32, align 4
  %2 = alloca i32, align 4
  %3 = alloca i32, align 4
  %4 = alloca i32, align 4
  %5 = alloca i32, align 4
  %6 = alloca i32, align 4
  %7 = alloca i32, align 4
  %8 = alloca i32, align 4
  store i32 0, i32* %1, align 4
  %9 = call i32 (i8*, ...) @__isoc99_scanf(i8* getelementptr inbounds ([3 x i8], [3 x i8]* @.str, i64 0, i64 0), i32* %2)
  store i32 3, i32* %3, align 4
  br label %10

10:                                               ; preds = %69, %0
  %11 = load i32, i32* %3, align 4
  %12 = load i32, i32* %2, align 4
  %13 = sdiv i32 %12, 2
  %14 = icmp sle i32 %11, %13
  br i1 %14, label %15, label %72

15:                                               ; preds = %10
  %16 = load i32, i32* %2, align 4
  %17 = load i32, i32* %3, align 4
  %18 = sub nsw i32 %16, %17
  store i32 %18, i32* %6, align 4
  %19 = load i32, i32* %3, align 4
  %20 = sitofp i32 %19 to double
  %21 = call double @sqrt(double %20) #3
  %22 = fptosi double %21 to i32
  store i32 %22, i32* %7, align 4
  %23 = load i32, i32* %6, align 4
  %24 = sitofp i32 %23 to double
  %25 = call double @sqrt(double %24) #3
  %26 = fptosi double %25 to i32
  store i32 %26, i32* %8, align 4
  store i32 2, i32* %4, align 4
  br label %27

27:                                               ; preds = %38, %15
  %28 = load i32, i32* %4, align 4
  %29 = load i32, i32* %7, align 4
  %30 = icmp sle i32 %28, %29
  br i1 %30, label %31, label %41

31:                                               ; preds = %27
  %32 = load i32, i32* %3, align 4
  %33 = load i32, i32* %4, align 4
  %34 = srem i32 %32, %33
  %35 = icmp eq i32 %34, 0
  br i1 %35, label %36, label %37

36:                                               ; preds = %31
  br label %41

37:                                               ; preds = %31
  br label %38

38:                                               ; preds = %37
  %39 = load i32, i32* %4, align 4
  %40 = add nsw i32 %39, 1
  store i32 %40, i32* %4, align 4
  br label %27

41:                                               ; preds = %36, %27
  store i32 2, i32* %5, align 4
  br label %42

42:                                               ; preds = %53, %41
  %43 = load i32, i32* %5, align 4
  %44 = load i32, i32* %8, align 4
  %45 = icmp sle i32 %43, %44
  br i1 %45, label %46, label %56

46:                                               ; preds = %42
  %47 = load i32, i32* %6, align 4
  %48 = load i32, i32* %5, align 4
  %49 = srem i32 %47, %48
  %50 = icmp eq i32 %49, 0
  br i1 %50, label %51, label %52

51:                                               ; preds = %46
  br label %56

52:                                               ; preds = %46
  br label %53

53:                                               ; preds = %52
  %54 = load i32, i32* %5, align 4
  %55 = add nsw i32 %54, 1
  store i32 %55, i32* %5, align 4
  br label %42

56:                                               ; preds = %51, %42
  %57 = load i32, i32* %4, align 4
  %58 = load i32, i32* %7, align 4
  %59 = icmp sgt i32 %57, %58
  br i1 %59, label %60, label %68

60:                                               ; preds = %56
  %61 = load i32, i32* %5, align 4
  %62 = load i32, i32* %8, align 4
  %63 = icmp sgt i32 %61, %62
  br i1 %63, label %64, label %68

64:                                               ; preds = %60
  %65 = load i32, i32* %3, align 4
  %66 = load i32, i32* %6, align 4
  %67 = call i32 (i8*, ...) @printf(i8* getelementptr inbounds ([7 x i8], [7 x i8]* @.str.1, i64 0, i64 0), i32 %65, i32 %66)
  br label %68

68:                                               ; preds = %64, %60, %56
  br label %69

69:                                               ; preds = %68
  %70 = load i32, i32* %3, align 4
  %71 = add nsw i32 %70, 2
  store i32 %71, i32* %3, align 4
  br label %10

72:                                               ; preds = %10
  ret i32 0
}

declare dso_local i32 @__isoc99_scanf(i8*, ...) #1

; Function Attrs: nounwind
declare dso_local double @sqrt(double) #2

declare dso_local i32 @printf(i8*, ...) #1


!llvm.module.flags = !{!0}
!llvm.ident = !{!1}

!0 = !{i32 1, !"wchar_size", i32 4}
!1 = !{!"clang version 10.0.0-4ubuntu1 "}
