; ModuleID = 'source-C-CXX/42/609.c'
source_filename = "source-C-CXX/42/609.c"
target datalayout = "e-m:e-p270:32:32-p271:32:32-p272:64:64-i64:64-f80:128-n8:16:32:64-S128"
target triple = "x86_64-pc-linux-gnu"

@.str = private unnamed_addr constant [3 x i8] c"%d\00", align 1
@.str.1 = private unnamed_addr constant [7 x i8] c"%d %d\0A\00", align 1

; Function Attrs: nofree nounwind sspstrong uwtable
define dso_local i32 @main() local_unnamed_addr #0 {
  %1 = alloca i32, align 4
  %2 = bitcast i32* %1 to i8*
  call void @llvm.lifetime.start.p0i8(i64 4, i8* nonnull %2) #4
  %3 = call i32 (i8*, ...) @__isoc99_scanf(i8* getelementptr inbounds ([3 x i8], [3 x i8]* @.str, i64 0, i64 0), i32* nonnull %1)
  %4 = load i32, i32* %1, align 4, !tbaa !5
  %5 = icmp slt i32 %4, 6
  br i1 %5, label %47, label %6

6:                                                ; preds = %0, %42
  %7 = phi i32 [ %44, %42 ], [ %4, %0 ]
  %8 = phi i32 [ %43, %42 ], [ 3, %0 ]
  %9 = sub nsw i32 %7, %8
  %10 = sitofp i32 %8 to double
  %11 = call double @sqrt(double %10) #4
  %12 = fptosi double %11 to i32
  %13 = sitofp i32 %9 to double
  %14 = call double @sqrt(double %13) #4
  %15 = fptosi double %14 to i32
  %16 = icmp slt i32 %12, 2
  br i1 %16, label %29, label %17

17:                                               ; preds = %6
  %18 = and i32 %8, 1
  %19 = icmp eq i32 %18, 0
  br i1 %19, label %29, label %20

20:                                               ; preds = %17, %24
  %21 = phi i32 [ %22, %24 ], [ 2, %17 ]
  %22 = add nuw i32 %21, 1
  %23 = icmp eq i32 %21, %12
  br i1 %23, label %27, label %24, !llvm.loop !9

24:                                               ; preds = %20
  %25 = urem i32 %8, %22
  %26 = icmp eq i32 %25, 0
  br i1 %26, label %27, label %20, !llvm.loop !9

27:                                               ; preds = %20, %24
  %28 = icmp sge i32 %21, %12
  br label %29

29:                                               ; preds = %27, %17, %6
  %30 = phi i1 [ true, %6 ], [ false, %17 ], [ %28, %27 ]
  %31 = icmp slt i32 %15, 2
  br i1 %31, label %39, label %35

32:                                               ; preds = %35
  %33 = add nuw i32 %36, 1
  %34 = icmp eq i32 %36, %15
  br i1 %34, label %39, label %35, !llvm.loop !11

35:                                               ; preds = %29, %32
  %36 = phi i32 [ %33, %32 ], [ 2, %29 ]
  %37 = srem i32 %9, %36
  %38 = icmp eq i32 %37, 0
  br i1 %38, label %42, label %32

39:                                               ; preds = %32, %29
  br i1 %30, label %40, label %42

40:                                               ; preds = %39
  %41 = call i32 (i8*, ...) @printf(i8* nonnull dereferenceable(1) getelementptr inbounds ([7 x i8], [7 x i8]* @.str.1, i64 0, i64 0), i32 %8, i32 %9)
  br label %42

42:                                               ; preds = %35, %39, %40
  %43 = add nuw nsw i32 %8, 2
  %44 = load i32, i32* %1, align 4, !tbaa !5
  %45 = sdiv i32 %44, 2
  %46 = icmp sgt i32 %43, %45
  br i1 %46, label %47, label %6, !llvm.loop !12

47:                                               ; preds = %42, %0
  call void @llvm.lifetime.end.p0i8(i64 4, i8* nonnull %2) #4
  ret i32 0
}

; Function Attrs: argmemonly mustprogress nofree nosync nounwind willreturn
declare void @llvm.lifetime.start.p0i8(i64 immarg, i8* nocapture) #1

; Function Attrs: nofree nounwind
declare noundef i32 @__isoc99_scanf(i8* nocapture noundef readonly, ...) local_unnamed_addr #2

; Function Attrs: mustprogress nofree nounwind willreturn
declare double @sqrt(double) local_unnamed_addr #3

; Function Attrs: nofree nounwind
declare noundef i32 @printf(i8* nocapture noundef readonly, ...) local_unnamed_addr #2

; Function Attrs: argmemonly mustprogress nofree nosync nounwind willreturn
declare void @llvm.lifetime.end.p0i8(i64 immarg, i8* nocapture) #1


!llvm.module.flags = !{!0, !1, !2, !3}
!llvm.ident = !{!4}

!0 = !{i32 1, !"wchar_size", i32 4}
!1 = !{i32 7, !"PIC Level", i32 2}
!2 = !{i32 7, !"PIE Level", i32 2}
!3 = !{i32 7, !"uwtable", i32 1}
!4 = !{!"clang version 13.0.0"}
!5 = !{!6, !6, i64 0}
!6 = !{!"int", !7, i64 0}
!7 = !{!"omnipotent char", !8, i64 0}
!8 = !{!"Simple C/C++ TBAA"}
!9 = distinct !{!9, !10}
!10 = !{!"llvm.loop.mustprogress"}
!11 = distinct !{!11, !10}
!12 = distinct !{!12, !10}
